; Function Attrs: mustprogress nofree norecurse nosync nounwind sspstrong willreturn memory(read, argmem: readwrite, inaccessiblemem: none) uwtable
define internal void @quorum_child_perm(ptr noundef readonly captures(none) %bs, ptr readnone captures(none) %c, i32 %role, ptr readnone captures(none) %reopen_queue, i64 noundef %perm, i64 noundef %shared, ptr noundef writeonly captures(none) initializes((0, 8)) %nperm, ptr noundef writeonly captures(none) initializes((0, 8)) %nshared) #3 {
entry:
  %opaque = getelementptr inbounds nuw i8, ptr %bs, i64 24
  %0 = load ptr, ptr %opaque, align 8
  %and = and i64 %perm, 15
  store i64 %and, ptr %nperm, align 8
  %rewrite_corrupted = getelementptr inbounds nuw i8, ptr %0, i64 21
  %1 = load i8, ptr %rewrite_corrupted, align 1
  %tobool = trunc i8 %1 to i1
  br i1 %tobool, label %if.then, label %if.end

if.then:                                          ; preds = %entry
  %or = or i64 %and, 2
  store i64 %or, ptr %nperm, align 8
  br label %if.end

if.end:                                           ; preds = %if.then, %entry
  %and1 = and i64 %shared, 5
  store i64 %and1, ptr %nshared, align 8
  ret void
}